target datalayout = "e-m:e-p270:32:32-p271:32:32-p272:64:64-i64:64-i128:128-f80:128-n8:16:32:64-S128"
target triple = "x86_64-pc-linux-gnu"

%"class.cvc5::internal::NodeTemplate.85" = type { ptr }

; Function Attrs: mustprogress nounwind uwtable
define linkonce_odr hidden void @_ZN4cvc58internal12NodeTemplateILb0EED2Ev(ptr noundef nonnull align 8 dereferenceable(8) %0) unnamed_addr #7 comdat align 2 {
  %2 = alloca ptr, align 8
  store ptr %0, ptr %2, align 8, !tbaa !48
  ret void
}

; Function Attrs: mustprogress nounwind uwtable
define linkonce_odr hidden void @_ZN4cvc58internal12NodeTemplateILb0EEC2ERKS2_(ptr noundef nonnull align 8 dereferenceable(8) %0, ptr noundef nonnull align 8 dereferenceable(8) %1) unnamed_addr #7 comdat align 2 {
  %3 = alloca ptr, align 8
  %4 = alloca ptr, align 8
  store ptr %0, ptr %3, align 8, !tbaa !48
  store ptr %1, ptr %4, align 8, !tbaa !48
  %5 = load ptr, ptr %3, align 8
  %6 = load ptr, ptr %4, align 8, !tbaa !48
  %7 = getelementptr inbounds nuw %"class.cvc5::internal::NodeTemplate.85", ptr %6, i32 0, i32 0
  %8 = load ptr, ptr %7, align 8, !tbaa !50
  %9 = getelementptr inbounds nuw %"class.cvc5::internal::NodeTemplate.85", ptr %5, i32 0, i32 0
  store ptr %8, ptr %9, align 8, !tbaa !50
  ret void
}

; Function Attrs: mustprogress uwtable
define hidden noundef zeroext i1 @_ZN4cvc58internal6theory7strings4Word7isEmptyENS0_12NodeTemplateILb0EEE(ptr noundef %0) #4 align 2 personality ptr @__gxx_personality_v0 {
  %2 = alloca i1, align 1
  %3 = alloca ptr, align 8
  %4 = alloca %"class.cvc5::internal::NodeTemplate.85", align 8
  %5 = alloca i1, align 1
  %6 = alloca ptr, align 8
  %7 = alloca i32, align 4
  store ptr %0, ptr %3, align 8, !tbaa !48
  %8 = call noundef zeroext i1 @_ZNK4cvc58internal12NodeTemplateILb0EE7isConstEv(ptr noundef nonnull align 8 dereferenceable(8) %0)
  store i1 false, ptr %5, align 1
  br i1 %8, label %9, label %13

9:                                                ; preds = %1
  call void @_ZN4cvc58internal12NodeTemplateILb0EEC2ERKS2_(ptr noundef nonnull align 8 dereferenceable(8) %4, ptr noundef nonnull align 8 dereferenceable(8) %0)
  store i1 true, ptr %5, align 1
  %10 = invoke noundef i64 @_ZN4cvc58internal6theory7strings4Word9getLengthENS0_12NodeTemplateILb0EEE(ptr noundef %4)
          to label %11 unwind label %19

11:                                               ; preds = %9
  %12 = icmp eq i64 %10, 0
  br label %13

13:                                               ; preds = %11, %1
  %14 = phi i1 [ false, %1 ], [ %12, %11 ]
  store i1 %14, ptr %2, align 1
  %15 = load i1, ptr %5, align 1
  br i1 %15, label %16, label %17

16:                                               ; preds = %13
  call void @_ZN4cvc58internal12NodeTemplateILb0EED2Ev(ptr noundef nonnull align 8 dereferenceable(8) %4) #3
  br label %17

17:                                               ; preds = %16, %13
  %18 = load i1, ptr %2, align 1
  ret i1 %18

19:                                               ; preds = %9
  %20 = landingpad { ptr, i32 }
          cleanup
  %21 = extractvalue { ptr, i32 } %20, 0
  store ptr %21, ptr %6, align 8
  %22 = extractvalue { ptr, i32 } %20, 1
  store i32 %22, ptr %7, align 4
  %23 = load i1, ptr %5, align 1
  br i1 %23, label %24, label %25

24:                                               ; preds = %19
  call void @_ZN4cvc58internal12NodeTemplateILb0EED2Ev(ptr noundef nonnull align 8 dereferenceable(8) %4) #3
  br label %25

25:                                               ; preds = %24, %19
  br label %26

26:                                               ; preds = %25
  %27 = load ptr, ptr %6, align 8
  %28 = load i32, ptr %7, align 4
  %29 = insertvalue { ptr, i32 } poison, ptr %27, 0
  %30 = insertvalue { ptr, i32 } %29, i32 %28, 1
  resume { ptr, i32 } %30
}