; Function Attrs: mustprogress uwtable
define hidden noundef zeroext i1 @_ZN4cvc58internal6theory7strings4Word7isEmptyENS0_12NodeTemplateILb0EEE(ptr noundef nonnull %0) local_unnamed_addr #3 align 2 personality ptr @__gxx_personality_v0 {
  %2 = alloca %"class.cvc5::internal::NodeTemplate.85", align 8
  %3 = tail call noundef zeroext i1 @_ZNK4cvc58internal12NodeTemplateILb0EE7isConstEv(ptr noundef nonnull align 8 dereferenceable(8) %0)
  br i1 %3, label %4, label %8

4:                                                ; preds = %1
  %5 = load ptr, ptr %0, align 8, !tbaa !28
  store ptr %5, ptr %2, align 8, !tbaa !28
  %6 = call noundef i64 @_ZN4cvc58internal6theory7strings4Word9getLengthENS0_12NodeTemplateILb0EEE(ptr noundef nonnull %2)
  %7 = icmp eq i64 %6, 0
  br label %8

8:                                                ; preds = %1, %4
  %9 = phi i1 [ %7, %4 ], [ false, %1 ]
  ret i1 %9
}